target datalayout = "e-m:e-p270:32:32-p271:32:32-p272:64:64-i64:64-i128:128-f80:128-n8:16:32:64-S128"
target triple = "x86_64-pc-linux-gnu"

%struct.Query = type { i32, i32, i32, i64, i8, ptr, i32, i8, i8, i8, i8, i8, i8, i8, i8, i8, i8, i8, ptr, ptr, ptr, ptr, ptr, i32, ptr, ptr, i32, ptr, ptr, ptr, ptr, ptr, i8, ptr, ptr, ptr, ptr, ptr, ptr, ptr, i32, ptr, ptr, ptr, ptr, i32, i32 }
%struct.RelationData = type { %struct.RelFileLocator, ptr, i32, i32, i8, i8, i8, i8, i8, i32, i32, i32, i32, ptr, ptr, i32, %struct.LockInfoData, ptr, ptr, ptr, ptr, ptr, i8, ptr, ptr, ptr, ptr, ptr, ptr, i32, ptr, i8, ptr, ptr, i32, i8, i32, ptr, i8, ptr, ptr, ptr, ptr, ptr, ptr, ptr, i32, ptr, ptr, ptr, ptr, ptr, ptr, ptr, ptr, ptr, ptr, ptr, ptr, ptr, ptr, ptr, ptr, ptr, ptr, ptr, i32, i8, ptr }
%struct.RelFileLocator = type { i32, i32, i32 }
%struct.LockInfoData = type { %struct.LockRelId }
%struct.LockRelId = type { i32, i32 }
%struct.FormData_pg_class = type { i32, %struct.nameData, i32, i32, i32, i32, i32, i32, i32, i32, float, i32, i32, i8, i8, i8, i8, i16, i16, i8, i8, i8, i8, i8, i8, i8, i8, i32, i32, i32 }
%struct.nameData = type { [64 x i8] }
%struct.RuleLock = type { i32, ptr }
%struct.RewriteRule = type { i32, i32, ptr, ptr, i8, i8 }

@.str.1 = private unnamed_addr constant [17 x i8] c"rewriteHandler.c\00", align 1
@SessionReplicationRole = external global i32, align 4
@.str.63 = private unnamed_addr constant [38 x i8] c"cannot execute MERGE on relation \22%s\22\00", align 1
@.str.64 = private unnamed_addr constant [49 x i8] c"MERGE is not supported for relations with rules.\00", align 1
@__func__.matchLocks = private unnamed_addr constant [11 x i8] c"matchLocks\00", align 1

; Function Attrs: nounwind uwtable
define internal ptr @matchLocks(i32 noundef %0, ptr noundef %1, i32 noundef %2, ptr noundef %3, ptr noundef %4) #0 {
  %6 = alloca ptr, align 8
  %7 = alloca i32, align 4
  %8 = alloca ptr, align 8
  %9 = alloca i32, align 4
  %10 = alloca ptr, align 8
  %11 = alloca ptr, align 8
  %12 = alloca ptr, align 8
  %13 = alloca ptr, align 8
  %14 = alloca i32, align 4
  %15 = alloca i32, align 4
  %16 = alloca i32, align 4
  %17 = alloca ptr, align 8
  store i32 %0, ptr %7, align 4
  store ptr %1, ptr %8, align 8
  store i32 %2, ptr %9, align 4
  store ptr %3, ptr %10, align 8
  store ptr %4, ptr %11, align 8
  call void @llvm.lifetime.start.p0(i64 8, ptr %12) #9
  %18 = load ptr, ptr %8, align 8
  %19 = getelementptr inbounds nuw %struct.RelationData, ptr %18, i32 0, i32 17
  %20 = load ptr, ptr %19, align 8
  store ptr %20, ptr %12, align 8
  call void @llvm.lifetime.start.p0(i64 8, ptr %13) #9
  store ptr null, ptr %13, align 8
  call void @llvm.lifetime.start.p0(i64 4, ptr %14) #9
  call void @llvm.lifetime.start.p0(i64 4, ptr %15) #9
  %21 = load ptr, ptr %12, align 8
  %22 = icmp eq ptr %21, null
  br i1 %22, label %23, label %24

23:                                               ; preds = %5
  store ptr null, ptr %6, align 8
  store i32 1, ptr %16, align 4
  br label %149

24:                                               ; preds = %5
  %25 = load ptr, ptr %10, align 8
  %26 = getelementptr inbounds nuw %struct.Query, ptr %25, i32 0, i32 1
  %27 = load i32, ptr %26, align 4
  %28 = icmp ne i32 %27, 1
  br i1 %28, label %29, label %37

29:                                               ; preds = %24
  %30 = load ptr, ptr %10, align 8
  %31 = getelementptr inbounds nuw %struct.Query, ptr %30, i32 0, i32 6
  %32 = load i32, ptr %31, align 8
  %33 = load i32, ptr %9, align 4
  %34 = icmp ne i32 %32, %33
  br i1 %34, label %35, label %36

35:                                               ; preds = %29
  store ptr null, ptr %6, align 8
  store i32 1, ptr %16, align 4
  br label %149

36:                                               ; preds = %29
  br label %37

37:                                               ; preds = %36, %24
  %38 = load ptr, ptr %12, align 8
  %39 = getelementptr inbounds nuw %struct.RuleLock, ptr %38, i32 0, i32 0
  %40 = load i32, ptr %39, align 8
  store i32 %40, ptr %14, align 4
  store i32 0, ptr %15, align 4
  br label %41

41:                                               ; preds = %144, %37
  %42 = load i32, ptr %15, align 4
  %43 = load i32, ptr %14, align 4
  %44 = icmp slt i32 %42, %43
  br i1 %44, label %45, label %147

45:                                               ; preds = %41
  call void @llvm.lifetime.start.p0(i64 8, ptr %17) #9
  %46 = load ptr, ptr %12, align 8
  %47 = getelementptr inbounds nuw %struct.RuleLock, ptr %46, i32 0, i32 1
  %48 = load ptr, ptr %47, align 8
  %49 = load i32, ptr %15, align 4
  %50 = sext i32 %49 to i64
  %51 = getelementptr inbounds ptr, ptr %48, i64 %50
  %52 = load ptr, ptr %51, align 8
  store ptr %52, ptr %17, align 8
  %53 = load ptr, ptr %17, align 8
  %54 = getelementptr inbounds nuw %struct.RewriteRule, ptr %53, i32 0, i32 1
  %55 = load i32, ptr %54, align 4
  %56 = icmp eq i32 %55, 2
  br i1 %56, label %57, label %59

57:                                               ; preds = %45
  %58 = load ptr, ptr %11, align 8
  store i8 1, ptr %58, align 1
  br label %59

59:                                               ; preds = %57, %45
  %60 = load ptr, ptr %17, align 8
  %61 = getelementptr inbounds nuw %struct.RewriteRule, ptr %60, i32 0, i32 1
  %62 = load i32, ptr %61, align 4
  %63 = icmp ne i32 %62, 1
  br i1 %63, label %64, label %120

64:                                               ; preds = %59
  %65 = load i32, ptr @SessionReplicationRole, align 4
  %66 = icmp eq i32 %65, 1
  br i1 %66, label %67, label %81

67:                                               ; preds = %64
  %68 = load ptr, ptr %17, align 8
  %69 = getelementptr inbounds nuw %struct.RewriteRule, ptr %68, i32 0, i32 4
  %70 = load i8, ptr %69, align 8
  %71 = sext i8 %70 to i32
  %72 = icmp eq i32 %71, 79
  br i1 %72, label %79, label %73

73:                                               ; preds = %67
  %74 = load ptr, ptr %17, align 8
  %75 = getelementptr inbounds nuw %struct.RewriteRule, ptr %74, i32 0, i32 4
  %76 = load i8, ptr %75, align 8
  %77 = sext i8 %76 to i32
  %78 = icmp eq i32 %77, 68
  br i1 %78, label %79, label %80

79:                                               ; preds = %73, %67
  store i32 4, ptr %16, align 4
  br label %141

80:                                               ; preds = %73
  br label %95

81:                                               ; preds = %64
  %82 = load ptr, ptr %17, align 8
  %83 = getelementptr inbounds nuw %struct.RewriteRule, ptr %82, i32 0, i32 4
  %84 = load i8, ptr %83, align 8
  %85 = sext i8 %84 to i32
  %86 = icmp eq i32 %85, 82
  br i1 %86, label %93, label %87

87:                                               ; preds = %81
  %88 = load ptr, ptr %17, align 8
  %89 = getelementptr inbounds nuw %struct.RewriteRule, ptr %88, i32 0, i32 4
  %90 = load i8, ptr %89, align 8
  %91 = sext i8 %90 to i32
  %92 = icmp eq i32 %91, 68
  br i1 %92, label %93, label %94

93:                                               ; preds = %87, %81
  store i32 4, ptr %16, align 4
  br label %141

94:                                               ; preds = %87
  br label %95

95:                                               ; preds = %94, %80
  %96 = load ptr, ptr %10, align 8
  %97 = getelementptr inbounds nuw %struct.Query, ptr %96, i32 0, i32 1
  %98 = load i32, ptr %97, align 4
  %99 = icmp eq i32 %98, 5
  br i1 %99, label %100, label %119

100:                                              ; preds = %95
  br label %101

101:                                              ; preds = %100
  br i1 true, label %102, label %104

102:                                              ; preds = %101
  %103 = call zeroext i1 @errstart_cold(i32 noundef 21, ptr noundef null) #10
  br i1 %103, label %106, label %116

104:                                              ; preds = %101
  %105 = call zeroext i1 @errstart(i32 noundef 21, ptr noundef null)
  br i1 %105, label %106, label %116

106:                                              ; preds = %104, %102
  %107 = call i32 @errcode(i32 noundef 1088)
  %108 = load ptr, ptr %8, align 8
  %109 = getelementptr inbounds nuw %struct.RelationData, ptr %108, i32 0, i32 13
  %110 = load ptr, ptr %109, align 8
  %111 = getelementptr inbounds nuw %struct.FormData_pg_class, ptr %110, i32 0, i32 1
  %112 = getelementptr inbounds nuw %struct.nameData, ptr %111, i32 0, i32 0
  %113 = getelementptr inbounds [64 x i8], ptr %112, i64 0, i64 0
  %114 = call i32 (ptr, ...) @errmsg(ptr noundef @.str.63, ptr noundef %113)
  %115 = call i32 (ptr, ...) @errdetail(ptr noundef @.str.64)
  call void @errfinish(ptr noundef @.str.1, i32 noundef 1691, ptr noundef @__func__.matchLocks)
  br label %116

116:                                              ; preds = %106, %104, %102
  unreachable

117:                                              ; No predecessors!
  br label %118

118:                                              ; preds = %117
  br label %119

119:                                              ; preds = %118, %95
  br label %120

120:                                              ; preds = %119, %59
  %121 = load ptr, ptr %17, align 8
  %122 = getelementptr inbounds nuw %struct.RewriteRule, ptr %121, i32 0, i32 1
  %123 = load i32, ptr %122, align 4
  %124 = load i32, ptr %7, align 4
  %125 = icmp eq i32 %123, %124
  br i1 %125, label %126, label %140

126:                                              ; preds = %120
  %127 = load ptr, ptr %10, align 8
  %128 = getelementptr inbounds nuw %struct.Query, ptr %127, i32 0, i32 1
  %129 = load i32, ptr %128, align 4
  %130 = icmp ne i32 %129, 1
  br i1 %130, label %135, label %131

131:                                              ; preds = %126
  %132 = load ptr, ptr %10, align 8
  %133 = load i32, ptr %9, align 4
  %134 = call zeroext i1 @rangeTableEntry_used(ptr noundef %132, i32 noundef %133, i32 noundef 0)
  br i1 %134, label %135, label %139

135:                                              ; preds = %131, %126
  %136 = load ptr, ptr %13, align 8
  %137 = load ptr, ptr %17, align 8
  %138 = call ptr @lappend(ptr noundef %136, ptr noundef %137)
  store ptr %138, ptr %13, align 8
  br label %139

139:                                              ; preds = %135, %131
  br label %140

140:                                              ; preds = %139, %120
  store i32 0, ptr %16, align 4
  br label %141

141:                                              ; preds = %140, %93, %79
  call void @llvm.lifetime.end.p0(i64 8, ptr %17) #9
  %142 = load i32, ptr %16, align 4
  switch i32 %142, label %151 [
    i32 0, label %143
    i32 4, label %144
  ]

143:                                              ; preds = %141
  br label %144

144:                                              ; preds = %143, %141
  %145 = load i32, ptr %15, align 4
  %146 = add i32 %145, 1
  store i32 %146, ptr %15, align 4
  br label %41, !llvm.loop !43

147:                                              ; preds = %41
  %148 = load ptr, ptr %13, align 8
  store ptr %148, ptr %6, align 8
  store i32 1, ptr %16, align 4
  br label %149

149:                                              ; preds = %147, %35, %23
  call void @llvm.lifetime.end.p0(i64 4, ptr %15) #9
  call void @llvm.lifetime.end.p0(i64 4, ptr %14) #9
  call void @llvm.lifetime.end.p0(i64 8, ptr %13) #9
  call void @llvm.lifetime.end.p0(i64 8, ptr %12) #9
  %150 = load ptr, ptr %6, align 8
  ret ptr %150

151:                                              ; preds = %141
  unreachable
}