; Function Attrs: nounwind uwtable
define internal fastcc ptr @matchLocks(i32 noundef range(i32 2, 1) %0, ptr noundef readonly captures(none) %1, i32 noundef %2, ptr noundef %3, ptr noundef nonnull writeonly captures(none) %4) unnamed_addr #0 {
  %6 = getelementptr inbounds nuw i8, ptr %1, i64 88
  %7 = load ptr, ptr %6, align 8
  %8 = icmp eq ptr %7, null
  br i1 %8, label %.loopexit, label %9

9:                                                ; preds = %5
  %10 = getelementptr inbounds nuw i8, ptr %3, i64 4
  %11 = load i32, ptr %10, align 4
  %.not = icmp eq i32 %11, 1
  br i1 %.not, label %15, label %12

12:                                               ; preds = %9
  %13 = getelementptr inbounds nuw i8, ptr %3, i64 40
  %14 = load i32, ptr %13, align 8
  %.not33 = icmp eq i32 %14, %2
  br i1 %.not33, label %15, label %.loopexit

15:                                               ; preds = %12, %9
  %16 = load i32, ptr %7, align 8
  %17 = icmp sgt i32 %16, 0
  br i1 %17, label %.lr.ph, label %.loopexit

.lr.ph:                                           ; preds = %15
  %18 = getelementptr inbounds nuw i8, ptr %7, i64 8
  %wide.trip.count = zext nneg i32 %16 to i64
  br label %19

19:                                               ; preds = %.lr.ph, %55
  %indvars.iv = phi i64 [ 0, %.lr.ph ], [ %indvars.iv.next, %55 ]
  %.02937 = phi ptr [ null, %.lr.ph ], [ %.1, %55 ]
  %20 = load ptr, ptr %18, align 8
  %21 = getelementptr inbounds nuw ptr, ptr %20, i64 %indvars.iv
  %22 = load ptr, ptr %21, align 8
  %23 = getelementptr inbounds nuw i8, ptr %22, i64 4
  %24 = load i32, ptr %23, align 4
  %25 = icmp eq i32 %24, 2
  br i1 %25, label %26, label %27

26:                                               ; preds = %19
  store i8 1, ptr %4, align 1
  %.pr = load i32, ptr %23, align 4
  br label %27

27:                                               ; preds = %26, %19
  %28 = phi i32 [ %.pr, %26 ], [ %24, %19 ]
  %.not34 = icmp eq i32 %28, 1
  br i1 %.not34, label %47, label %29

29:                                               ; preds = %27
  %30 = load i32, ptr @SessionReplicationRole, align 4
  %31 = icmp eq i32 %30, 1
  %32 = getelementptr inbounds nuw i8, ptr %22, i64 24
  %33 = load i8, ptr %32, align 8
  br i1 %31, label %34, label %35

34:                                               ; preds = %29
  switch i8 %33, label %36 [
    i8 79, label %55
    i8 68, label %55
  ]

35:                                               ; preds = %29
  switch i8 %33, label %36 [
    i8 82, label %55
    i8 68, label %55
  ]

36:                                               ; preds = %35, %34
  %37 = load i32, ptr %10, align 4
  %38 = icmp eq i32 %37, 5
  br i1 %38, label %39, label %47

39:                                               ; preds = %36
  %40 = tail call zeroext i1 @errstart_cold(i32 noundef 21, ptr noundef null) #11
  tail call void @llvm.assume(i1 %40)
  %41 = tail call i32 @errcode(i32 noundef 1088) #10
  %42 = getelementptr inbounds nuw i8, ptr %1, i64 56
  %43 = load ptr, ptr %42, align 8
  %44 = getelementptr inbounds nuw i8, ptr %43, i64 4
  %45 = tail call i32 (ptr, ...) @errmsg(ptr noundef nonnull @.str.63, ptr noundef nonnull %44) #10
  %46 = tail call i32 (ptr, ...) @errdetail(ptr noundef nonnull @.str.64) #10
  tail call void @errfinish(ptr noundef nonnull @.str.1, i32 noundef 1691, ptr noundef nonnull @__func__.matchLocks) #10
  unreachable

47:                                               ; preds = %36, %27
  %48 = icmp eq i32 %28, %0
  br i1 %48, label %49, label %55

49:                                               ; preds = %47
  %50 = load i32, ptr %10, align 4
  %.not35 = icmp eq i32 %50, 1
  br i1 %.not35, label %51, label %53

51:                                               ; preds = %49
  %52 = tail call zeroext i1 @rangeTableEntry_used(ptr noundef nonnull %3, i32 noundef %2, i32 noundef 0) #10
  br i1 %52, label %53, label %55

53:                                               ; preds = %51, %49
  %54 = tail call ptr @lappend(ptr noundef %.02937, ptr noundef nonnull %22) #10
  br label %55

55:                                               ; preds = %47, %53, %51, %35, %35, %34, %34
  %.1 = phi ptr [ %.02937, %34 ], [ %.02937, %34 ], [ %.02937, %35 ], [ %.02937, %35 ], [ %54, %53 ], [ %.02937, %51 ], [ %.02937, %47 ]
  %indvars.iv.next = add nuw nsw i64 %indvars.iv, 1
  %exitcond.not = icmp eq i64 %indvars.iv.next, %wide.trip.count
  br i1 %exitcond.not, label %.loopexit, label %19, !llvm.loop !21

.loopexit:                                        ; preds = %55, %15, %12, %5
  %.0 = phi ptr [ null, %5 ], [ null, %12 ], [ null, %15 ], [ %.1, %55 ]
  ret ptr %.0
}